target datalayout = "e-m:e-p270:32:32-p271:32:32-p272:64:64-i64:64-i128:128-f80:128-n8:16:32:64-S128"
target triple = "x86_64-pc-linux-gnu"

%struct.Ranges = type { i32, i32, i16, ptr, i32, i32, i32, i32, i32, [0 x i64] }
%struct.ExpandedRange = type { i64, i64, i8 }

; Function Attrs: nounwind uwtable
define internal void @fill_expanded_ranges(ptr noundef %0, i32 noundef %1, ptr noundef %2) #0 {
  %4 = alloca ptr, align 8
  %5 = alloca i32, align 4
  %6 = alloca ptr, align 8
  %7 = alloca i32, align 4
  %8 = alloca i32, align 4
  store ptr %0, ptr %4, align 8
  store i32 %1, ptr %5, align 4
  store ptr %2, ptr %6, align 8
  call void @llvm.lifetime.start.p0(i64 4, ptr %7) #8
  call void @llvm.lifetime.start.p0(i64 4, ptr %8) #8
  store i32 0, ptr %7, align 4
  store i32 0, ptr %8, align 4
  br label %9

9:                                                ; preds = %48, %3
  %10 = load i32, ptr %8, align 4
  %11 = load ptr, ptr %6, align 8
  %12 = getelementptr inbounds nuw %struct.Ranges, ptr %11, i32 0, i32 4
  %13 = load i32, ptr %12, align 8
  %14 = icmp slt i32 %10, %13
  br i1 %14, label %15, label %51

15:                                               ; preds = %9
  %16 = load ptr, ptr %6, align 8
  %17 = getelementptr inbounds nuw %struct.Ranges, ptr %16, i32 0, i32 9
  %18 = load i32, ptr %8, align 4
  %19 = mul i32 2, %18
  %20 = sext i32 %19 to i64
  %21 = getelementptr inbounds [0 x i64], ptr %17, i64 0, i64 %20
  %22 = load i64, ptr %21, align 8
  %23 = load ptr, ptr %4, align 8
  %24 = load i32, ptr %7, align 4
  %25 = sext i32 %24 to i64
  %26 = getelementptr inbounds %struct.ExpandedRange, ptr %23, i64 %25
  %27 = getelementptr inbounds nuw %struct.ExpandedRange, ptr %26, i32 0, i32 0
  store i64 %22, ptr %27, align 8
  %28 = load ptr, ptr %6, align 8
  %29 = getelementptr inbounds nuw %struct.Ranges, ptr %28, i32 0, i32 9
  %30 = load i32, ptr %8, align 4
  %31 = mul i32 2, %30
  %32 = add i32 %31, 1
  %33 = sext i32 %32 to i64
  %34 = getelementptr inbounds [0 x i64], ptr %29, i64 0, i64 %33
  %35 = load i64, ptr %34, align 8
  %36 = load ptr, ptr %4, align 8
  %37 = load i32, ptr %7, align 4
  %38 = sext i32 %37 to i64
  %39 = getelementptr inbounds %struct.ExpandedRange, ptr %36, i64 %38
  %40 = getelementptr inbounds nuw %struct.ExpandedRange, ptr %39, i32 0, i32 1
  store i64 %35, ptr %40, align 8
  %41 = load ptr, ptr %4, align 8
  %42 = load i32, ptr %7, align 4
  %43 = sext i32 %42 to i64
  %44 = getelementptr inbounds %struct.ExpandedRange, ptr %41, i64 %43
  %45 = getelementptr inbounds nuw %struct.ExpandedRange, ptr %44, i32 0, i32 2
  store i8 0, ptr %45, align 8
  %46 = load i32, ptr %7, align 4
  %47 = add i32 %46, 1
  store i32 %47, ptr %7, align 4
  br label %48

48:                                               ; preds = %15
  %49 = load i32, ptr %8, align 4
  %50 = add i32 %49, 1
  store i32 %50, ptr %8, align 4
  br label %9, !llvm.loop !17

51:                                               ; preds = %9
  store i32 0, ptr %8, align 4
  br label %52

52:                                               ; preds = %98, %51
  %53 = load i32, ptr %8, align 4
  %54 = load ptr, ptr %6, align 8
  %55 = getelementptr inbounds nuw %struct.Ranges, ptr %54, i32 0, i32 6
  %56 = load i32, ptr %55, align 8
  %57 = icmp slt i32 %53, %56
  br i1 %57, label %58, label %101

58:                                               ; preds = %52
  %59 = load ptr, ptr %6, align 8
  %60 = getelementptr inbounds nuw %struct.Ranges, ptr %59, i32 0, i32 9
  %61 = load ptr, ptr %6, align 8
  %62 = getelementptr inbounds nuw %struct.Ranges, ptr %61, i32 0, i32 4
  %63 = load i32, ptr %62, align 8
  %64 = mul i32 2, %63
  %65 = load i32, ptr %8, align 4
  %66 = add i32 %64, %65
  %67 = sext i32 %66 to i64
  %68 = getelementptr inbounds [0 x i64], ptr %60, i64 0, i64 %67
  %69 = load i64, ptr %68, align 8
  %70 = load ptr, ptr %4, align 8
  %71 = load i32, ptr %7, align 4
  %72 = sext i32 %71 to i64
  %73 = getelementptr inbounds %struct.ExpandedRange, ptr %70, i64 %72
  %74 = getelementptr inbounds nuw %struct.ExpandedRange, ptr %73, i32 0, i32 0
  store i64 %69, ptr %74, align 8
  %75 = load ptr, ptr %6, align 8
  %76 = getelementptr inbounds nuw %struct.Ranges, ptr %75, i32 0, i32 9
  %77 = load ptr, ptr %6, align 8
  %78 = getelementptr inbounds nuw %struct.Ranges, ptr %77, i32 0, i32 4
  %79 = load i32, ptr %78, align 8
  %80 = mul i32 2, %79
  %81 = load i32, ptr %8, align 4
  %82 = add i32 %80, %81
  %83 = sext i32 %82 to i64
  %84 = getelementptr inbounds [0 x i64], ptr %76, i64 0, i64 %83
  %85 = load i64, ptr %84, align 8
  %86 = load ptr, ptr %4, align 8
  %87 = load i32, ptr %7, align 4
  %88 = sext i32 %87 to i64
  %89 = getelementptr inbounds %struct.ExpandedRange, ptr %86, i64 %88
  %90 = getelementptr inbounds nuw %struct.ExpandedRange, ptr %89, i32 0, i32 1
  store i64 %85, ptr %90, align 8
  %91 = load ptr, ptr %4, align 8
  %92 = load i32, ptr %7, align 4
  %93 = sext i32 %92 to i64
  %94 = getelementptr inbounds %struct.ExpandedRange, ptr %91, i64 %93
  %95 = getelementptr inbounds nuw %struct.ExpandedRange, ptr %94, i32 0, i32 2
  store i8 1, ptr %95, align 8
  %96 = load i32, ptr %7, align 4
  %97 = add i32 %96, 1
  store i32 %97, ptr %7, align 4
  br label %98

98:                                               ; preds = %58
  %99 = load i32, ptr %8, align 4
  %100 = add i32 %99, 1
  store i32 %100, ptr %8, align 4
  br label %52, !llvm.loop !18

101:                                              ; preds = %52
  call void @llvm.lifetime.end.p0(i64 4, ptr %8) #8
  call void @llvm.lifetime.end.p0(i64 4, ptr %7) #8
  ret void
}

; Function Attrs: nounwind uwtable
define internal ptr @build_expanded_ranges(ptr noundef %0, i32 noundef %1, ptr noundef %2, ptr noundef %3) #0 {
  %5 = alloca ptr, align 8
  %6 = alloca i32, align 4
  %7 = alloca ptr, align 8
  %8 = alloca ptr, align 8
  %9 = alloca i32, align 4
  %10 = alloca ptr, align 8
  store ptr %0, ptr %5, align 8
  store i32 %1, ptr %6, align 4
  store ptr %2, ptr %7, align 8
  store ptr %3, ptr %8, align 8
  call void @llvm.lifetime.start.p0(i64 4, ptr %9) #8
  call void @llvm.lifetime.start.p0(i64 8, ptr %10) #8
  %11 = load ptr, ptr %7, align 8
  %12 = getelementptr inbounds nuw %struct.Ranges, ptr %11, i32 0, i32 4
  %13 = load i32, ptr %12, align 8
  %14 = load ptr, ptr %7, align 8
  %15 = getelementptr inbounds nuw %struct.Ranges, ptr %14, i32 0, i32 6
  %16 = load i32, ptr %15, align 8
  %17 = add i32 %13, %16
  store i32 %17, ptr %9, align 4
  %18 = load i32, ptr %9, align 4
  %19 = sext i32 %18 to i64
  %20 = mul i64 %19, 24
  %21 = call ptr @palloc0(i64 noundef %20)
  store ptr %21, ptr %10, align 8
  %22 = load ptr, ptr %10, align 8
  %23 = load i32, ptr %9, align 4
  %24 = load ptr, ptr %7, align 8
  call void @fill_expanded_ranges(ptr noundef %22, i32 noundef %23, ptr noundef %24)
  %25 = load ptr, ptr %5, align 8
  %26 = load i32, ptr %6, align 4
  %27 = load ptr, ptr %10, align 8
  %28 = load i32, ptr %9, align 4
  %29 = call i32 @sort_expanded_ranges(ptr noundef %25, i32 noundef %26, ptr noundef %27, i32 noundef %28)
  store i32 %29, ptr %9, align 4
  %30 = load i32, ptr %9, align 4
  %31 = load ptr, ptr %8, align 8
  store i32 %30, ptr %31, align 4
  %32 = load ptr, ptr %10, align 8
  call void @llvm.lifetime.end.p0(i64 8, ptr %10) #8
  call void @llvm.lifetime.end.p0(i64 4, ptr %9) #8
  ret ptr %32
}