; Function Attrs: nounwind uwtable
define internal fastcc ptr @build_expanded_ranges(ptr noundef %0, i32 noundef %1, ptr noundef readonly captures(none) %2, ptr noundef nonnull writeonly captures(none) %3) unnamed_addr #0 {
  %5 = getelementptr inbounds nuw i8, ptr %2, i64 24
  %6 = load i32, ptr %5, align 8
  %7 = getelementptr inbounds nuw i8, ptr %2, i64 32
  %8 = load i32, ptr %7, align 8
  %9 = add i32 %8, %6
  %10 = sext i32 %9 to i64
  %11 = mul nsw i64 %10, 24
  %12 = tail call ptr @palloc0(i64 noundef %11) #12
  %13 = load i32, ptr %5, align 8
  %14 = icmp sgt i32 %13, 0
  br i1 %14, label %.lr.ph.i, label %.preheader.i

.lr.ph.i:                                         ; preds = %4
  %15 = getelementptr inbounds nuw i8, ptr %2, i64 48
  br label %20

.preheader.loopexit.i:                            ; preds = %20
  %16 = trunc nuw nsw i64 %indvars.iv.next.i to i32
  br label %.preheader.i

.preheader.i:                                     ; preds = %.preheader.loopexit.i, %4
  %.029.lcssa.i = phi i32 [ 0, %4 ], [ %16, %.preheader.loopexit.i ]
  %17 = load i32, ptr %7, align 8
  %18 = icmp sgt i32 %17, 0
  br i1 %18, label %.lr.ph35.i, label %fill_expanded_ranges.exit

.lr.ph35.i:                                       ; preds = %.preheader.i
  %19 = getelementptr inbounds nuw i8, ptr %2, i64 48
  br label %35

20:                                               ; preds = %20, %.lr.ph.i
  %indvars.iv.i = phi i64 [ 0, %.lr.ph.i ], [ %indvars.iv.next.i, %20 ]
  %sext.i = shl i64 %indvars.iv.i, 33
  %21 = ashr exact i64 %sext.i, 32
  %22 = getelementptr inbounds [0 x i64], ptr %15, i64 0, i64 %21
  %23 = load i64, ptr %22, align 8
  %24 = getelementptr inbounds nuw %struct.ExpandedRange, ptr %12, i64 %indvars.iv.i
  store i64 %23, ptr %24, align 8
  %indvars.iv.tr.i = trunc i64 %indvars.iv.i to i32
  %25 = shl i32 %indvars.iv.tr.i, 1
  %26 = or disjoint i32 %25, 1
  %27 = sext i32 %26 to i64
  %28 = getelementptr inbounds [0 x i64], ptr %15, i64 0, i64 %27
  %29 = load i64, ptr %28, align 8
  %30 = getelementptr inbounds nuw i8, ptr %24, i64 8
  store i64 %29, ptr %30, align 8
  %31 = getelementptr inbounds nuw i8, ptr %24, i64 16
  store i8 0, ptr %31, align 8
  %indvars.iv.next.i = add nuw nsw i64 %indvars.iv.i, 1
  %32 = load i32, ptr %5, align 8
  %33 = sext i32 %32 to i64
  %34 = icmp slt i64 %indvars.iv.next.i, %33
  br i1 %34, label %20, label %.preheader.loopexit.i, !llvm.loop !21

35:                                               ; preds = %35, %.lr.ph35.i
  %.134.i = phi i32 [ 0, %.lr.ph35.i ], [ %53, %35 ]
  %.13033.i = phi i32 [ %.029.lcssa.i, %.lr.ph35.i ], [ %52, %35 ]
  %36 = load i32, ptr %5, align 8
  %37 = shl i32 %36, 1
  %38 = add i32 %37, %.134.i
  %39 = sext i32 %38 to i64
  %40 = getelementptr inbounds [0 x i64], ptr %19, i64 0, i64 %39
  %41 = load i64, ptr %40, align 8
  %42 = sext i32 %.13033.i to i64
  %43 = getelementptr inbounds %struct.ExpandedRange, ptr %12, i64 %42
  store i64 %41, ptr %43, align 8
  %44 = load i32, ptr %5, align 8
  %45 = shl i32 %44, 1
  %46 = add i32 %45, %.134.i
  %47 = sext i32 %46 to i64
  %48 = getelementptr inbounds [0 x i64], ptr %19, i64 0, i64 %47
  %49 = load i64, ptr %48, align 8
  %50 = getelementptr inbounds nuw i8, ptr %43, i64 8
  store i64 %49, ptr %50, align 8
  %51 = getelementptr inbounds nuw i8, ptr %43, i64 16
  store i8 1, ptr %51, align 8
  %52 = add nuw i32 %.13033.i, 1
  %53 = add nuw nsw i32 %.134.i, 1
  %54 = load i32, ptr %7, align 8
  %55 = icmp slt i32 %53, %54
  br i1 %55, label %35, label %fill_expanded_ranges.exit, !llvm.loop !22

fill_expanded_ranges.exit:                        ; preds = %35, %.preheader.i
  %56 = tail call fastcc i32 @sort_expanded_ranges(ptr noundef %0, i32 noundef %1, ptr noundef %12, i32 noundef %9)
  store i32 %56, ptr %3, align 4
  ret ptr %12
}